(dp0
S'kullan\xc4\xb1c\xc4\xb1lar'
p1
I62
sS'masas\xc4\xb1n\xc4\xb1'
p2
I63
sS'Gen\xc3\xa7lerin'
p3
I64
sS'hata'
p4
I32
sS'durumda'
p5
I65
sS'0'
p6
I66
sS'\xc3\xa7\xc3\xbcnk\xc3\xbc'
p7
I67
sS'\xc3\xa7evrimi\xc3\xa7i'
p8
I68
sS'g\xc3\xb6r\xc3\xbcnsede'
p9
I69
sS'\xc3\xbcretti\xc4\x9fimiz'
p10
I70
sS'onun'
p11
I10
sS'sonunda'
p12
I71
sS'konusunda'
p13
I72
sS'sentetik'
p14
I73
sS'ideallerimiz'
p15
I74
sS'Richter'
p16
I75
sS'senin'
p17
I20
sS'yasalar\xc4\xb1'
p18
I76
sS'dil'
p19
I77
sS'alma'
p20
I78
sS'olan'
p21
I79
sS'haber'
p22
I80
sS'kablosunu'
p23
I81
sS'\xc4\xb0nsanlar\xc4\xb1'
p24
I82
sS'imkans\xc4\xb1zd\xc4\xb1r'
p25
I83
sS'_GO'
p26
I1
sS'leh\xc3\xa7eler'
p27
I85
sS'konu\xc5\x9fmak'
p28
I86
sS'olacakt\xc4\xb1r'
p29
I87
sS'teklif'
p30
I373
sS'\xc3\xa7ekmek'
p31
I362
sS'temas'
p32
I89
sS'hasara'
p33
I90
sS'\xc4\xb1s\xc4\xb1'
p34
I91
sS'biri'
p35
I251
sS'pratik'
p36
I21
sS';'
p37
I93
sS'\xc5\x9fu'
p38
I94
sS'daha'
p39
I33
sS'\xc3\xa7\xc3\xb6kt\xc3\xbc'
p40
I95
sS'd\xc3\xbcnya'
p41
I363
sS'Y\xc3\xbcksek'
p42
I98
sS'konu\xc5\x9fulursa'
p43
I99
sS'i\xc5\x9fletmelerimiz'
p44
I100
sS'se\xc3\xa7imler'
p45
I101
sS'olabilir'
p46
I102
sS'yerli'
p47
I12
sS's\xc3\xb6zc\xc3\xbc'
p48
I103
sS'Tom'
p49
I14
sS've'
p50
I7
sS'e\xc4\x9fitim'
p51
I104
sS'kal\xc4\xb1c\xc4\xb1'
p52
I105
sS'a\xc5\x9fa\xc4\x9f\xc4\xb1ya'
p53
I106
sS'b\xc3\xbcy\xc3\xbcyor'
p54
I160
sS'g\xc3\xb6r\xc3\xbcnm\xc3\xbcyor'
p55
I107
sS'daki'
p56
I108
sS'\xc3\xbct\xc3\xbclerken'
p57
I109
sS'kuma\xc5\x9fla'
p58
I97
sS'bilgisayardan'
p59
I111
sS'sistemini'
p60
I113
sS'Roger'
p61
I114
sS'\xc3\xbclkede'
p62
I115
sS'olu\xc5\x9fturma'
p63
I116
sS'babas\xc4\xb1'
p64
I35
sS'1990'
p65
I117
sS'ettiren'
p66
I118
sS'ancak'
p67
I119
sS'alk\xc4\xb1\xc5\x9flarken'
p68
I120
sS'nedenle'
p69
I121
sS'yapt\xc4\xb1klar\xc4\xb1'
p70
I122
sS'etti\xc4\x9fi'
p71
I36
sS'bunun'
p72
I37
sS's\xc4\xb1n\xc4\xb1rlar\xc4\xb1n\xc4\xb1'
p73
I123
sS'\xc3\xa7ekiyor'
p74
I124
sS'etti'
p75
I125
sS'sonucu'
p76
I126
sS'g\xc3\xbc\xc3\xa7l\xc3\xbc'
p77
I127
sS'Ekonomimizin'
p78
I128
sS'beklenen'
p79
I129
sS'budur'
p80
I130
sS'\xc3\xa7alabilinceye'
p81
I131
sS'renksiz'
p82
I132
sS'E\xc4\x9fer'
p83
I133
sS'dikkat'
p84
I134
sS'kadar'
p85
I13
sS'uyar\xc4\xb1yorlar'
p86
I135
sS'nedeni'
p87
I136
sS'konu\xc5\x9fmac\xc4\xb1'
p88
I22
sS'hafta'
p89
I137
sS'\xc4\xb0ngilizcesi'
p90
I138
sS'Sentetik'
p91
I139
sS'\xc5\x9fey'
p92
I140
sS'ya\xc5\x9famaya'
p93
I186
sS'fark'
p94
I38
sS'\xc3\xb6l\xc3\xbcm\xc3\xbcn'
p95
I142
sS'\xc3\xb6rnek'
p96
I143
sS'bir\xc3\xa7ok'
p97
I39
sS'konu\xc5\x9fanlar\xc4\xb1'
p98
I144
sS'bina'
p99
I145
sS'ediliyor'
p100
I146
sS'ayakizi'
p101
I147
sS'hasta'
p102
I230
sS'zorlukla'
p103
I149
sS'te\xc5\x9fvik'
p104
I239
sS'y\xc3\xbczmenin'
p105
I151
sS'koyamazs\xc4\xb1n\xc4\xb1z'
p106
I152
sS'g\xc3\xb6re'
p107
I153
sS'otoriteleri'
p108
I154
sS'bulunabilen'
p109
I155
sS'eritecek'
p110
I156
sS'vanilya'
p111
I40
sS'\xc3\xbczerine'
p112
I157
sS'le'
p113
I158
sS'\xc3\xbct\xc3\xbcy\xc3\xbc'
p114
I159
sS'nin'
p115
I41
sS','
p116
I5
sS'Projesi'
p117
I161
sS'\xc3\xbct\xc3\xbc'
p118
I162
sS'lardan'
p119
I163
sS'yorum'
p120
I164
sS'Derne\xc4\x9finden'
p121
I165
sS'ye'
p122
I166
sS'hala'
p123
I167
sS'karbon'
p124
I168
sS'gerektirdi\xc4\x9fi'
p125
I169
sS'muhtemelen'
p126
I170
sS'alternatif'
p127
I171
sS'olduk\xc3\xa7a'
p128
I172
sS'al\xc4\xb1p'
p129
I173
sS'etmeyi'
p130
I174
sS'istekli'
p131
I175
sS'kar\xc5\x9f\xc4\xb1'
p132
I42
sS'y\xc3\xbcz\xc3\xbcndeki'
p133
I176
sS'\xc3\xa7\xc4\xb1kard\xc4\xb1'
p134
I177
sS'etmeye'
p135
I178
sS'ikna'
p136
I23
sS'en'
p137
I15
sS'fazla'
p138
I179
sS'sard\xc4\xb1'
p139
I180
sS"'"
p140
I8
sS'odalar\xc4\xb1'
p141
I181
sS'\xc3\xa7evrilmi\xc5\x9f'
p142
I182
sS'\xc3\xb6l\xc3\xa7e\xc4\x9fine'
p143
I183
sS'desteklemeliyiz'
p144
I184
sS'\xc3\xb6nemli'
p145
I185
sS'hemen'
p146
I141
sS'yarat\xc4\xb1yorlar'
p147
I187
sS'c\xc3\xbcmlelerden'
p148
I188
sS'_UNK'
p149
I3
sS'olmak'
p150
I189
sS'yapt\xc4\xb1\xc4\x9f\xc4\xb1nda'
p151
I190
sS'org'
p152
I191
sS'En'
p153
I192
sS'sonra'
p154
I43
sS'i\xc3\xa7in'
p155
I44
sS'\xc3\xb6\xc4\x9frenmeye'
p156
I193
sS'yeteneklerini'
p157
I194
sS'vadeli'
p158
I195
sS'\xc3\xa7\xc4\xb1karmak'
p159
I196
sS's\xc3\xb6ylemeyi'
p160
I197
sS'ta\xc5\x9flar'
p161
I198
sS'do\xc4\x9fru'
p162
I199
sS'ceza'
p163
I200
sS'bloklar\xc4\xb1ndan'
p164
I201
sS'Oklahoma'
p165
I202
sS'konu\xc5\x9fman'
p166
I84
sS'edinme'
p167
I203
sS'onlara'
p168
I204
sS'yine'
p169
I205
sS'onu'
p170
I24
sS'ayarlar\xc4\xb1'
p171
I206
sS'arad\xc4\xb1'
p172
I207
sS'oldu'
p173
I208
sS'g\xc3\xb6r\xc3\xbcn\xc3\xbcr'
p174
I209
sS'\xc3\xb6n\xc3\xbcnde'
p175
I210
sS'g\xc3\xb6r\xc3\xbcn\xc3\xbcyordu'
p176
I211
sS'zorunday\xc4\xb1z'
p177
I212
sS'baz\xc4\xb1'
p178
I213
sS'd\xc3\xbc\xc5\x9f\xc3\xbcncesizce'
p179
I214
sS'\xc3\xb6yle'
p180
I215
sS'g\xc3\xb6r\xc3\xbclebilir'
p181
I216
sS'sa\xc4\x9fl\xc4\xb1kl\xc4\xb1'
p182
I217
sS'alan'
p183
I45
sS'ayn\xc4\xb1'
p184
I25
sS'b\xc3\xbcy\xc3\xbckl\xc3\xbc\xc4\x9f\xc3\xbc'
p185
I218
sS'\xc4\xb1n'
p186
I219
sS'oldu\xc4\x9fu'
p187
I220
sS'duyurdu'
p188
I221
sS'tavanl\xc4\xb1'
p189
I222
sS'yapmak'
p190
I223
sS'sa\xc4\x9flar'
p191
I224
sS'sigaralar'
p192
I225
sS'uyum'
p193
I226
sS'konu\xc5\x9ftu\xc4\x9funu'
p194
I227
sS'\xc3\xa7evresi'
p195
I228
sS'ana'
p196
I229
sS'olarak'
p197
I46
sS'yukar\xc4\xb1dan'
p198
I148
sS'deneyimini'
p199
I231
sS'anlam\xc4\xb1na'
p200
I232
sS'dolaba'
p201
I233
sS'sadece'
p202
I234
sS'yapt\xc4\xb1\xc4\x9f\xc4\xb1'
p203
I235
sS'ofis'
p204
I236
sS'dilindeki'
p205
I47
sS'ba\xc5\x9flang\xc4\xb1\xc3\xa7ta'
p206
I237
sS'vurmad\xc4\xb1\xc4\x9f\xc4\xb1'
p207
I238
sS'katlad\xc4\xb1'
p208
I150
sS'h\xc4\xb1zl\xc4\xb1'
p209
I240
sS'yerde'
p210
I241
sS'ki'
p211
I48
sS'\xc3\xa7abucak'
p212
I242
sS'att\xc4\xb1'
p213
I243
sS'Tatoeba'
p214
I49
sS'annesi'
p215
I244
sS'Alkolle'
p216
I245
sS'Y\xc3\xbcz\xc3\xbcc\xc3\xbc'
p217
I246
sS'restoranda'
p218
I247
sS'kendi'
p219
I248
sS'\xc3\xbccretler'
p220
I249
sS'ge\xc3\xa7mi\xc5\x9f'
p221
I250
sS'i\xc5\x9fler'
p222
I92
sS'Birden'
p223
I252
sS'Y\xc3\xbczme'
p224
I253
sS'cam\xc4\xb1n\xc4\xb1'
p225
I254
sS'kald\xc4\xb1rd\xc4\xb1'
p226
I255
sS'Bir'
p227
I50
sS'evlenme'
p228
I256
sS'de'
p229
I16
sS'beden'
p230
I257
sS'da'
p231
I51
sS'a\xc5\x9fan'
p232
I258
sS'kuma\xc5\x9flar\xc4\xb1'
p233
I52
sS'\xc3\x9ct\xc3\xbc'
p234
I259
sS'\xc3\xa7ikolata'
p235
I260
sS'tekrar'
p236
I26
sS'\xc3\xbczerinde'
p237
I261
sS'istiyorsan'
p238
I262
sS'dizlerinin'
p239
I263
sS'ortas\xc4\xb1nda'
p240
I264
sS'ban\xc3\xa7o'
p241
I265
sS'olmad\xc4\xb1\xc4\x9f\xc4\xb1n\xc4\xb1'
p242
I266
sS'iPad'
p243
I267
sS'ses'
p244
I268
sS'foto\xc4\x9fraf'
p245
I269
sS'kullanmak'
p246
I270
sS'sa\xc4\x9fl\xc4\xb1k'
p247
I271
sS'ya\xc5\x9f\xc4\xb1ndayken'
p248
I272
sS'\xc3\xa7ikolatan\xc4\xb1n'
p249
I273
sS'kolayl\xc4\xb1kla'
p250
I274
sS'y\xc3\xbcz\xc3\xbck'
p251
I275
sS'faaliyetlerimizin'
p252
I276
sS'ekonominin'
p253
I277
sS'gecenin'
p254
I278
sS'istenilen'
p255
I279
sS'g\xc3\xb6zlerinde'
p256
I280
sS'de\xc4\x9fi\xc5\x9fik'
p257
I281
sS'tempoda'
p258
I53
sS'ile'
p259
I282
sS'd\xc3\xbczey'
p260
I283
sS'yapmaya'
p261
I284
sS't\xc3\xbcr\xc3\xbc'
p262
I285
sS'gerilimi'
p263
I286
sS'so\xc4\x9fuduktan'
p264
I287
sS'_EOS'
p265
I2
sS'adalet'
p266
I288
sS's\xc4\xb1cak'
p267
I289
sS'kirlenmesinin'
p268
I290
sS'elektrik'
p269
I291
sS'.'
p270
I4
sS'etkilerine'
p271
I390
sS'Senin'
p272
I293
sS'sebep'
p273
I294
sS'vard\xc4\xb1'
p274
I295
sS'Yani'
p275
I296
sS'ba\xc5\x9flamalar\xc4\xb1'
p276
I297
sS'\xc3\xa7evirileri'
p277
I298
sS'iyi'
p278
I17
sS'\xc3\xb6nemlidir'
p279
I299
sS'\xc3\xbcst'
p280
I300
sS'par\xc3\xa7ay\xc4\xb1'
p281
I301
sS'oldu\xc4\x9funu'
p282
I302
sS'\xc3\xa7o\xc4\x9funlukla'
p283
I303
sS'sonu\xc3\xa7land\xc4\xb1'
p284
I304
sS'koydu'
p285
I305
sS'cebinden'
p286
I306
sS'oldu\xc4\x9funa'
p287
I27
sS'olmal\xc4\xb1s\xc4\xb1n'
p288
I307
sS'biliyor'
p289
I308
sS'uzun'
p290
I54
sS'\xc3\xa7al\xc4\xb1\xc5\x9f\xc4\xb1yor'
p291
I345
sS'Ayr\xc4\xb1mc\xc4\xb1l\xc4\xb1\xc4\x9fa'
p292
I309
sS'rafa'
p293
I371
sS'd\xc3\xb6rt'
p294
I310
sS'al\xc4\xb1\xc5\x9fk\xc4\xb1nd\xc4\xb1r'
p295
I311
sS'birden'
p296
I312
sS'yerine'
p297
I313
sS'defalarca'
p298
I314
sS'yerini'
p299
I315
sS'Elektronik'
p300
I316
sS'herkes'
p301
I317
sS'\xc3\xb6nemsiz'
p302
I318
sS'konu\xc5\x9fan\xc4\xb1'
p303
I319
sS'Daver'
p304
I320
sS'k\xc4\xb1rarak'
p305
I321
sS'Ve'
p306
I322
sS'sarst\xc4\xb1'
p307
I348
sS'ard\xc4\xb1ndan'
p308
I324
sS'Miller'
p309
I325
sS'c\xc3\xbcmleleri'
p310
I326
sS'\xc3\xbct\xc3\xbcye'
p311
I394
sS'ilgili'
p312
I328
sS'hatal\xc4\xb1'
p313
I329
sS'\xc3\xb6neririz'
p314
I330
sS'genellikle'
p315
I331
sS'\xc3\xbct\xc3\xbcn\xc3\xbcn'
p316
I332
sS'\xc4\xb1'
p317
I333
sS'hakk\xc4\xb1nda'
p318
I56
sS'zaman'
p319
I57
sS'parlak'
p320
I334
sS'\xc3\xa7al\xc4\xb1\xc5\x9f'
p321
I335
sS'elmas'
p322
I336
sS'polisi'
p323
I337
sS'yorucu'
p324
I338
sS'Nicholas'
p325
I339
sS'hen\xc3\xbcz'
p326
I340
sS'konu\xc5\x9fmad\xc4\xb1\xc4\x9f\xc4\xb1n\xc4\xb1'
p327
I341
sS'b\xc3\xbcy\xc3\xbct\xc3\xbcrek'
p328
I397
sS'vard\xc4\xb1r'
p329
I398
sS'b\xc3\xbcy\xc3\xbcd\xc3\xbc\xc4\x9f\xc3\xbc'
p330
I344
sS'ama'
p331
I55
sS'sars\xc4\xb1nt\xc4\xb1'
p332
I346
sS'birilerini'
p333
I347
sS'i\xc5\x9fe'
p334
I58
sS'karbondioksit'
p335
I323
sS'ba\xc5\x9fka'
p336
I349
sS'bir'
p337
I6
sS'\xc3\xa7\xc4\xb1kt\xc4\xb1'
p338
I350
sS'\xc3\xb6ld\xc3\xbc'
p339
I351
sS'g\xc3\xb6rd\xc3\xbcm'
p340
I352
sS'dikkatini'
p341
I353
sS'\xc5\x9fekilde'
p342
I354
sS'g\xc3\xb6nderildi'
p343
I355
sS'amcas\xc4\xb1'
p344
I356
sS'Mary'
p345
I18
sS'penceresine'
p346
I357
sS'miktar\xc4\xb1d\xc4\xb1r'
p347
I358
sS'_PAD'
p348
I0
sS'Anayasa'
p349
I359
sS'gelir'
p350
I360
sS't\xc3\xbct\xc3\xbcne'
p351
I361
sS'art\xc3\xa7\xc4\xb1n\xc4\xb1n'
p352
I88
sS'ger\xc3\xa7ekten'
p353
I59
sS'bilmeyen'
p354
I96
sS'bu'
p355
I19
sS'bilim'
p356
I364
sS'y\xc3\xbckselmeye'
p357
I365
sS'dilin'
p358
I366
sS'o'
p359
I11
sS'\xc3\xbclke'
p360
I367
sS'konut'
p361
I368
sS'be\xc5\x9f'
p362
I369
sS'\xc3\xa7ok'
p363
I28
sS's\xc3\xb6yledi'
p364
I370
sS'anda'
p365
I34
sS'eklemeni'
p366
I372
sS'kendini'
p367
I112
sS'ba\xc5\x9fl\xc4\xb1yor'
p368
I374
sS'zorluklar\xc4\xb1n\xc4\xb1'
p369
I375
sS'\xc3\xa7al\xc4\xb1\xc5\x9f\xc4\xb1rsan'
p370
I376
sS'becerebilsen'
p371
I377
sS'Obama'
p372
I378
sS'yaramad\xc4\xb1\xc4\x9f\xc4\xb1n\xc4\xb1'
p373
I379
sS'y\xc3\xbcksek'
p374
I380
sS'gibi'
p375
I9
sS'Hen\xc3\xbcz'
p376
I381
sS'adamlar\xc4\xb1'
p377
I382
sS'beri'
p378
I383
sS's\xc4\xb1k'
p379
I384
sS'ortaya'
p380
I385
sS'ekonomi'
p381
I386
sS'istedi\xc4\x9fimiz'
p382
I387
sS'bizim'
p383
I29
sS'un'
p384
I388
sS'fakat'
p385
I30
sS'dili'
p386
I389
sS'dile'
p387
I292
sS'yapt\xc4\xb1'
p388
I391
sS'olu\xc5\x9fan'
p389
I392
sS'k\xc4\xb1y\xc4\xb1ya'
p390
I393
sS'az'
p391
I60
sS'Erick'
p392
I110
sS'hafife'
p393
I327
sS'\xc3\xbczerindeki'
p394
I395
sS'ne'
p395
I61
sS'etmek'
p396
I396
sS'5'
p397
I342
sS'herkesin'
p398
I343
sS'duymaya'
p399
I399
sS'\xc3\xa7alanlar\xc4\xb1n'
p400
I400
sS'veritaban\xc4\xb1'
p401
I401
sS'Cindy'
p402
I402
sS's\xc3\xb6ylerse'
p403
I403
sS'e'
p404
I404
sS'Kanal'
p405
I405
sS'asla'
p406
I406
sS'b\xc3\xbcy\xc3\xbck'
p407
I31
sS'Japonya'
p408
I407
s.