(dp0
S'all'
p1
I97
sS'four'
p2
I98
sS'causes'
p3
I99
sS'seemed'
p4
I100
sS'synthetic'
p5
I53
sS'uphold'
p6
I101
sS'tremors'
p7
I102
sS'concerned'
p8
I103
sS'father'
p9
I54
sS'young'
p10
I104
sS'languages'
p11
I55
sS'to'
p12
I7
sS'sent'
p13
I106
sS'activities'
p14
I107
sS'very'
p15
I108
sS'rise'
p16
I109
sS'translations'
p17
I110
sS'Richter'
p18
I111
sS'try'
p19
I112
sS'limitations'
p20
I350
sS'_GO'
p21
I1
sS'says'
p22
I114
sS'even'
p23
I115
sS'what'
p24
I116
sS'weren'
p25
I117
sS'melt'
p26
I118
sS'spokesman'
p27
I119
sS'scientists'
p28
I120
sS'body'
p29
I121
sS'never'
p30
I122
sS'desired'
p31
I123
sS'English'
p32
I124
sS'healthy'
p33
I125
sS'economics'
p34
I126
sS'amount'
p35
I127
sS'makes'
p36
I128
sS'Constitution'
p37
I129
sS'manage'
p38
I130
sS'visible'
p39
I131
sS'Tom'
p40
I29
sS'from'
p41
I56
sS'takes'
p42
I133
sS'working'
p43
I134
sS'0'
p44
I105
sS'E-cigarettes'
p45
I135
sS'few'
p46
I136
sS'live'
p47
I137
sS'recommend'
p48
I138
sS'until'
p49
I140
sS'today'
p50
I141
sS'more'
p51
I57
sS'diamond'
p52
I142
sS'Erick'
p53
I143
sS'chocolate'
p54
I58
sS'Roger'
p55
I144
sS'must'
p56
I145
sS'this'
p57
I146
sS'can'
p58
I38
sS'learn'
p59
I147
sS'growing'
p60
I59
sS'example'
p61
I148
sS'high'
p62
I61
sS'something'
p63
I149
sS'want'
p64
I62
sS'phrase'
p65
I150
sS'native'
p66
I24
sS'huge'
p67
I151
sS'end'
p68
I152
sS'get'
p69
I251
sS'damage'
p70
I154
sS'how'
p71
I155
sS'instead'
p72
I156
sS'economy'
p73
I63
sS'A'
p74
I39
sS'tension'
p75
I157
sS'may'
p76
I64
sS'after'
p77
I159
sS'wrong'
p78
I160
sS'produce'
p79
I161
sS'fits'
p80
I162
sS'a'
p81
I10
sS'cigarettes'
p82
I163
sS'so'
p83
I65
sS'pulled'
p84
I164
sS'longest'
p85
I165
sS'breaking'
p86
I153
sS'over'
p87
I30
sS'soon'
p88
I166
sS'ended'
p89
I167
sS'looks'
p90
I168
sS'still'
p91
I169
sS'its'
p92
I66
sS'll'
p93
I170
sS','
p94
I5
sS'him'
p95
I77
sS'window'
p96
I67
sS'permanent'
p97
I172
sS'Using'
p98
I173
sS'main'
p99
I295
sS'then'
p100
I175
sS'them'
p101
I68
sS'good'
p102
I40
sS'practice'
p103
I69
sS'impossible'
p104
I209
sS'effects'
p105
I177
sS'they'
p106
I41
sS'front'
p107
I178
sS'hearing'
p108
I208
sS'realize'
p109
I179
sS'easily'
p110
I180
sS'In'
p111
I181
sS'settings'
p112
I182
sS'rocks'
p113
I183
sS'magnitude'
p114
I184
sS'found'
p115
I185
sS'everyone'
p116
I186
sS'year'
p117
I187
sS'our'
p118
I31
sS'ring'
p119
I188
sS'really'
p120
I96
sS'large'
p121
I190
sS"'"
p122
I12
sS'dialects'
p123
I191
sS'since'
p124
I71
sS'health'
p125
I72
sS'dioxide'
p126
I192
sS'got'
p127
I193
sS'cause'
p128
I194
sS'announced'
p129
I195
sS'colorless'
p130
I196
sS'tempo'
p131
I197
sS'_UNK'
p132
I3
sS'quite'
p133
I198
sS'offhandedly'
p134
I199
sS'put'
p135
I42
sS'org'
p136
I200
sS'language'
p137
I32
sS'Though'
p138
I364
sS'times'
p139
I202
sS'place'
p140
I203
sS'first'
p141
I204
sS'spoken'
p142
I205
sS'Oklahoma'
p143
I206
sS'There'
p144
I207
sS'yourself'
p145
I132
sS'ironing'
p146
I60
sS'wages'
p147
I210
sS'system'
p148
I212
sS'their'
p149
I211
sS'too'
p150
I214
sS'which'
p151
I88
sS'wrapped'
p152
I215
sS'countries'
p153
I259
sS'Association'
p154
I216
sS'that'
p155
I11
sS'shelf'
p156
I217
sS'cops'
p157
I218
sS'than'
p158
I73
sS'kind'
p159
I219
sS'require'
p160
I220
sS'matter'
p161
I221
sS'speaking'
p162
I222
sS'iron'
p163
I33
sS'result'
p164
I223
sS'and'
p165
I8
sS'_EOS'
p166
I2
sS'have'
p167
I74
sS'sentences'
p168
I75
sS'need'
p169
I224
sS'seem'
p170
I225
sS'saw'
p171
I226
sS'speakers'
p172
I227
sS'After'
p173
I228
sS'sound'
p174
I34
sS'ashore'
p175
I229
sS'online'
p176
I230
sS'banjo'
p177
I231
sS'play'
p178
I232
sS'though'
p179
I233
sS'who'
p180
I234
sS'The'
p181
I43
sS'\xe2\x80\x94'
p182
I389
sS'don'
p183
I235
sS'clear'
p184
I236
sS'face'
p185
I237
sS'Tatoeba'
p186
I238
sS'laws'
p187
I239
sS'saying'
p188
I240
sS'businesses'
p189
I241
sS'one'
p190
I70
sS'We'
p191
I76
sS'proposed'
p192
I322
sS'Top-down'
p193
I243
sS'justice'
p194
I244
sS'sentence'
p195
I245
sS'folded'
p196
I246
sS'surroundings'
p197
I247
sS'only'
p198
I248
sS'meant'
p199
I249
sS'his'
p200
I17
sS'hit'
p201
I250
sS'means'
p202
I139
sS'pocket'
p203
I252
sS'unimportant'
p204
I253
sS'fastest'
p205
I254
sS'words'
p206
I255
sS'fabrics'
p207
I171
sS'Swimming'
p208
I257
sS'tobacco'
p209
I258
sS'hiring'
p210
I176
sS'she'
p211
I260
sS'where'
p212
I261
sS'iPad'
p213
I262
sS'computer'
p214
I263
sS'are'
p215
I18
sS'ability'
p216
I264
sS'knees'
p217
I265
sS'said'
p218
I266
sS'closet'
p219
I267
sS'That'
p220
I268
sS'away'
p221
I269
sS'difficulties'
p222
I270
sS'various'
p223
I271
sS'correctly'
p224
I272
sS'probably'
p225
I273
sS'we'
p226
I44
sS'jobs'
p227
I274
sS'creating'
p228
I78
sS'attention'
p229
I275
sS'news'
p230
I277
sS'restaurant'
p231
I278
sS'many'
p232
I79
sS'barely'
p233
I279
sS'against'
p234
I280
sS'players'
p235
I281
sS's'
p236
I19
sS'became'
p237
I80
sS'long-term'
p238
I282
sS'comment'
p239
I283
sS'had'
p240
I81
sS'excess'
p241
I284
sS'alcohol-related'
p242
I285
sS'learning'
p243
I286
sS'carbon'
p244
I82
sS'swimmer'
p245
I287
sS'discrimination'
p246
I288
sS'quickly'
p247
I289
sS'willing'
p248
I276
sS'expected'
p249
I291
sS'threw'
p250
I292
sS'photos'
p251
I293
sS'present'
p252
I294
sS'And'
p253
I213
sS'criminal'
p254
I174
sS'vanilla'
p255
I83
sS'choices'
p256
I296
sS'will'
p257
I297
sS'pace'
p258
I298
sS'while'
p259
I299
sS'warning'
p260
I377
sS'ceilings'
p261
I301
sS'country'
p262
I302
sS'promoted'
p263
I303
sS'mistake'
p264
I84
sS'is'
p265
I15
sS'it'
p266
I14
sS'middle'
p267
I304
sS'someone'
p268
I305
sS'in'
p269
I9
sS'You'
p270
I306
sS'fibers'
p271
I308
sS'make'
p272
I85
sS'same'
p273
I35
sS'speaker'
p274
I25
sS'underestimate'
p275
I309
sS'largest'
p276
I310
sS'week'
p277
I311
sS'I'
p278
I312
sS'moment'
p279
I313
sS'footprint'
p280
I314
sS'off'
p281
I315
sS'database'
p282
I316
sS'Miller'
p283
I317
sS'well'
p284
I318
sS'aftershock'
p285
I319
sS'contact'
p286
I320
sS'mother'
p287
I321
sS'the'
p288
I4
sS'If'
p289
I86
sS'just'
p290
I242
sS'less'
p291
I87
sS'being'
p292
I323
sS'shape'
p293
I324
sS'rooms'
p294
I325
sS'alternative'
p295
I326
sS'Nicholas'
p296
I327
sS'yet'
p297
I328
sS'adding'
p298
I329
sS'death'
p299
I330
sS'seems'
p300
I331
sS'board'
p301
I332
sS'electrical'
p302
I333
sS'has'
p303
I334
sS'swim'
p304
I335
sS'around'
p305
I307
sS'Project'
p306
I336
sS'know'
p307
I89
sS'background'
p308
I337
sS'world'
p309
I338
sS'like'
p310
I26
sS'offices'
p311
I339
sS't'
p312
I27
sS'night'
p313
I340
sS'translated'
p314
I341
sS'works'
p315
I342
sS'cooled'
p316
I343
sS'old'
p317
I344
sS'often'
p318
I45
sS'people'
p319
I90
sS'some'
p320
I345
sS'back'
p321
I91
sS'ideals'
p322
I346
sS'strongest'
p323
I347
sS'5'
p324
I380
sS'Mary'
p325
I36
sS'Channel'
p326
I348
sS'scale'
p327
I349
sS'_PAD'
p328
I0
sS'cord'
p329
I113
sS'be'
p330
I28
sS'shaken'
p331
I351
sS'on'
p332
I21
sS'about'
p333
I46
sS'of'
p334
I13
sS'practical'
p335
I352
sS'Japan'
p336
I353
sS'shiny'
p337
I354
sS'block'
p338
I355
sS'pollution'
p339
I356
sS'own'
p340
I357
sS'No'
p341
I358
sS'into'
p342
I359
sS'down'
p343
I360
sS'tatoeba'
p344
I361
sS'1990s'
p345
I362
sS'.'
p346
I6
sS'your'
p347
I47
sS'fabric'
p348
I363
sS'her'
p349
I92
sS'area'
p350
I201
sS'housing'
p351
I365
sS'noticed'
p352
I366
sS'overestimate'
p353
I367
sS'start'
p354
I368
sS'much'
p355
I290
sS'way'
p356
I369
sS'was'
p357
I48
sS'Obama'
p358
I370
sS'but'
p359
I22
sS'heat'
p360
I371
sS'uncle'
p361
I372
sS'highest'
p362
I373
sS'with'
p363
I37
sS'he'
p364
I23
sS'made'
p365
I49
sS'up'
p366
I93
sS'convince'
p367
I50
sS'accustomed'
p368
I374
sS'called'
p369
I375
sS'doesn'
p370
I94
sS'an'
p371
I376
sS'as'
p372
I51
sS'too-hot'
p373
I300
sS'at'
p374
I16
sS'education'
p375
I378
sS'again'
p376
I95
sS'when'
p377
I52
sS'other'
p378
I379
sS'Five'
p379
I158
sS'sick'
p380
I381
sS'you'
p381
I20
sS'out'
p382
I189
sS'users'
p383
I382
sS'important'
p384
I383
sS'Cindy'
p385
I384
sS'authorities'
p386
I385
sS'died'
p387
I386
sS'Dover'
p388
I387
sS'building'
p389
I388
sS'applause'
p390
I256
sS'exhausting'
p391
I390
sS'At'
p392
I391
sS'time'
p393
I392
sS'starting'
p394
I393
sS'others'
p395
I394
s.